; Function Attrs: mustprogress uwtable
define hidden void @_ZN19OpenColorIO_v2_5dev12MatrixOpData11MatrixArray4fillEv(ptr noundef nonnull align 8 dereferenceable(48) %0) local_unnamed_addr #3 align 2 {
  %2 = load ptr, ptr %0, align 8, !tbaa !15
  %3 = getelementptr inbounds nuw i8, ptr %2, i64 32
  %4 = load ptr, ptr %3, align 8
  %5 = tail call noundef i64 %4(ptr noundef nonnull align 8 dereferenceable(48) %0)
  %6 = getelementptr inbounds nuw i8, ptr %0, i64 24
  %7 = load ptr, ptr %6, align 8, !tbaa !9
  %8 = getelementptr inbounds nuw i8, ptr %0, i64 32
  %9 = load ptr, ptr %8, align 8, !tbaa !25
  %10 = ptrtoint ptr %9 to i64
  %11 = ptrtoint ptr %7 to i64
  %12 = sub i64 %10, %11
  tail call void @llvm.memset.p0.i64(ptr nonnull align 8 %7, i8 0, i64 %12, i1 false)
  %.not = icmp eq i64 %5, 0
  br i1 %.not, label %._crit_edge, label %.preheader

.preheader:                                       ; preds = %1, %17
  %.01417 = phi i64 [ %18, %17 ], [ 0, %1 ]
  %13 = mul i64 %.01417, %5
  %14 = load ptr, ptr %6, align 8
  %15 = getelementptr double, ptr %14, i64 %13
  %16 = getelementptr double, ptr %15, i64 %.01417
  br label %19

._crit_edge:                                      ; preds = %17, %1
  ret void

17:                                               ; preds = %22
  %18 = add nuw i64 %.01417, 1
  %exitcond18.not = icmp eq i64 %18, %5
  br i1 %exitcond18.not, label %._crit_edge, label %.preheader, !llvm.loop !26

19:                                               ; preds = %.preheader, %22
  %.016 = phi i64 [ 0, %.preheader ], [ %23, %22 ]
  %20 = icmp eq i64 %.01417, %.016
  br i1 %20, label %21, label %22

21:                                               ; preds = %19
  store double 1.000000e+00, ptr %16, align 8, !tbaa !7
  br label %22

22:                                               ; preds = %19, %21
  %23 = add nuw i64 %.016, 1
  %exitcond.not = icmp eq i64 %23, %5
  br i1 %exitcond.not, label %17, label %19, !llvm.loop !27
}